; Function Attrs: mustprogress nofree norecurse nosync nounwind willreturn memory(read, argmem: readwrite, inaccessiblemem: none) uwtable
define void @_ZN14duckdb_parquet18FileCryptoMetaDataC2Ev(ptr noundef nonnull align 8 dereferenceable(217) initializes((0, 24)) %0, ptr noundef readonly captures(none) %1) unnamed_addr #7 align 2 personality ptr @__gxx_personality_v0 {
  %3 = load ptr, ptr %1, align 8
  store ptr %3, ptr %0, align 8, !tbaa !22
  %4 = getelementptr inbounds nuw i8, ptr %1, i64 8
  %5 = load ptr, ptr %4, align 8
  %6 = getelementptr i8, ptr %3, i64 -48
  %7 = load i64, ptr %6, align 8
  %8 = getelementptr inbounds i8, ptr %0, i64 %7
  store ptr %5, ptr %8, align 8, !tbaa !22
  %9 = getelementptr inbounds nuw i8, ptr %0, i64 8
  store ptr getelementptr inbounds nuw inrange(-48, 40) (i8, ptr @_ZTVN14duckdb_parquet19EncryptionAlgorithmE, i64 48), ptr %9, align 8, !tbaa !22
  %10 = getelementptr inbounds nuw i8, ptr %0, i64 16
  store ptr getelementptr inbounds nuw inrange(-48, 40) (i8, ptr @_ZTVN14duckdb_parquet8AesGcmV1E, i64 48), ptr %10, align 8, !tbaa !22
  %11 = getelementptr inbounds nuw i8, ptr %0, i64 24
  %12 = getelementptr inbounds nuw i8, ptr %0, i64 40
  store ptr %12, ptr %11, align 8, !tbaa !33
  %13 = getelementptr inbounds nuw i8, ptr %0, i64 32
  store i64 0, ptr %13, align 8, !tbaa !39
  store i8 0, ptr %12, align 8, !tbaa !38
  %14 = getelementptr inbounds nuw i8, ptr %0, i64 56
  %15 = getelementptr inbounds nuw i8, ptr %0, i64 72
  store ptr %15, ptr %14, align 8, !tbaa !33
  %16 = getelementptr inbounds nuw i8, ptr %0, i64 64
  store i64 0, ptr %16, align 8, !tbaa !39
  store i8 0, ptr %15, align 8, !tbaa !38
  %17 = getelementptr inbounds nuw i8, ptr %0, i64 88
  store i8 0, ptr %17, align 8, !tbaa !762
  %18 = getelementptr inbounds nuw i8, ptr %0, i64 89
  %19 = load i8, ptr %18, align 1
  %20 = and i8 %19, -8
  store i8 %20, ptr %18, align 1
  %21 = getelementptr inbounds nuw i8, ptr %0, i64 96
  store ptr getelementptr inbounds nuw inrange(-48, 40) (i8, ptr @_ZTVN14duckdb_parquet11AesGcmCtrV1E, i64 48), ptr %21, align 8, !tbaa !22
  %22 = getelementptr inbounds nuw i8, ptr %0, i64 104
  %23 = getelementptr inbounds nuw i8, ptr %0, i64 120
  store ptr %23, ptr %22, align 8, !tbaa !33
  %24 = getelementptr inbounds nuw i8, ptr %0, i64 112
  store i64 0, ptr %24, align 8, !tbaa !39
  store i8 0, ptr %23, align 8, !tbaa !38
  %25 = getelementptr inbounds nuw i8, ptr %0, i64 136
  %26 = getelementptr inbounds nuw i8, ptr %0, i64 152
  store ptr %26, ptr %25, align 8, !tbaa !33
  %27 = getelementptr inbounds nuw i8, ptr %0, i64 144
  store i64 0, ptr %27, align 8, !tbaa !39
  store i8 0, ptr %26, align 8, !tbaa !38
  %28 = getelementptr inbounds nuw i8, ptr %0, i64 168
  store i8 0, ptr %28, align 8, !tbaa !766
  %29 = getelementptr inbounds nuw i8, ptr %0, i64 169
  %30 = load i8, ptr %29, align 1
  %31 = and i8 %30, -8
  store i8 %31, ptr %29, align 1
  %32 = getelementptr inbounds nuw i8, ptr %0, i64 176
  %33 = load i8, ptr %32, align 8
  %34 = and i8 %33, -4
  store i8 %34, ptr %32, align 8
  %35 = getelementptr inbounds nuw i8, ptr %0, i64 184
  %36 = getelementptr inbounds nuw i8, ptr %0, i64 200
  store ptr %36, ptr %35, align 8, !tbaa !33
  %37 = getelementptr inbounds nuw i8, ptr %0, i64 192
  store i64 0, ptr %37, align 8, !tbaa !39
  store i8 0, ptr %36, align 8, !tbaa !38
  %38 = getelementptr inbounds nuw i8, ptr %0, i64 216
  %39 = load i8, ptr %38, align 8
  %40 = and i8 %39, -2
  store i8 %40, ptr %38, align 8
  ret void
}